target datalayout = "e-m:e-p270:32:32-p271:32:32-p272:64:64-i64:64-i128:128-f80:128-n8:16:32:64-S128"
target triple = "x86_64-pc-linux-gnu"

%struct.hwloc_infos_s = type { ptr, i32, i32 }
%struct.hwloc_obj = type { i32, ptr, i32, ptr, i64, ptr, i32, i32, ptr, ptr, ptr, i32, ptr, ptr, i32, ptr, ptr, ptr, i32, i32, ptr, i32, ptr, i32, ptr, ptr, ptr, ptr, ptr, %struct.hwloc_infos_s, ptr, i64 }
%struct.hwloc_group_attr_s = type { i32, i32, i32, i8 }

@obj_type_order = internal constant [20 x i32] [i32 0, i32 4, i32 5, i32 14, i32 18, i32 12, i32 10, i32 8, i32 7, i32 6, i32 13, i32 11, i32 9, i32 1, i32 3, i32 2, i32 15, i32 16, i32 17, i32 19], align 16

; Function Attrs: inlinehint nounwind uwtable
define internal i32 @hwloc__obj_type_is_normal(i32 noundef %0) #4 {
  %2 = alloca i32, align 4
  store i32 %0, ptr %2, align 4, !tbaa !33
  %3 = load i32, ptr %2, align 4, !tbaa !33
  %4 = icmp ule i32 %3, 13
  %5 = zext i1 %4 to i32
  ret i32 %5
}

; Function Attrs: nounwind willreturn memory(none) uwtable
define i32 @hwloc_compare_types(i32 noundef %0, i32 noundef %1) #9 {
  %3 = alloca i32, align 4
  %4 = alloca i32, align 4
  %5 = alloca i32, align 4
  %6 = alloca i32, align 4
  %7 = alloca i32, align 4
  %8 = alloca i32, align 4
  store i32 %0, ptr %4, align 4, !tbaa !33
  store i32 %1, ptr %5, align 4, !tbaa !33
  call void @llvm.lifetime.start.p0(i64 4, ptr %6) #14
  %9 = load i32, ptr %4, align 4, !tbaa !33
  %10 = zext i32 %9 to i64
  %11 = getelementptr inbounds nuw [20 x i32], ptr @obj_type_order, i64 0, i64 %10
  %12 = load i32, ptr %11, align 4, !tbaa !33
  store i32 %12, ptr %6, align 4, !tbaa !33
  call void @llvm.lifetime.start.p0(i64 4, ptr %7) #14
  %13 = load i32, ptr %5, align 4, !tbaa !33
  %14 = zext i32 %13 to i64
  %15 = getelementptr inbounds nuw [20 x i32], ptr @obj_type_order, i64 0, i64 %14
  %16 = load i32, ptr %15, align 4, !tbaa !33
  store i32 %16, ptr %7, align 4, !tbaa !33
  %17 = load i32, ptr %4, align 4, !tbaa !33
  %18 = call i32 @hwloc__obj_type_is_normal(i32 noundef %17)
  %19 = icmp ne i32 %18, 0
  br i1 %19, label %28, label %20

20:                                               ; preds = %2
  %21 = load i32, ptr %5, align 4, !tbaa !33
  %22 = call i32 @hwloc__obj_type_is_normal(i32 noundef %21)
  %23 = icmp ne i32 %22, 0
  br i1 %23, label %24, label %28

24:                                               ; preds = %20
  %25 = load i32, ptr %5, align 4, !tbaa !33
  %26 = icmp ne i32 %25, 0
  br i1 %26, label %27, label %28

27:                                               ; preds = %24
  store i32 2147483647, ptr %3, align 4
  store i32 1, ptr %8, align 4
  br label %44

28:                                               ; preds = %24, %20, %2
  %29 = load i32, ptr %5, align 4, !tbaa !33
  %30 = call i32 @hwloc__obj_type_is_normal(i32 noundef %29)
  %31 = icmp ne i32 %30, 0
  br i1 %31, label %40, label %32

32:                                               ; preds = %28
  %33 = load i32, ptr %4, align 4, !tbaa !33
  %34 = call i32 @hwloc__obj_type_is_normal(i32 noundef %33)
  %35 = icmp ne i32 %34, 0
  br i1 %35, label %36, label %40

36:                                               ; preds = %32
  %37 = load i32, ptr %4, align 4, !tbaa !33
  %38 = icmp ne i32 %37, 0
  br i1 %38, label %39, label %40

39:                                               ; preds = %36
  store i32 2147483647, ptr %3, align 4
  store i32 1, ptr %8, align 4
  br label %44

40:                                               ; preds = %36, %32, %28
  %41 = load i32, ptr %6, align 4, !tbaa !33
  %42 = load i32, ptr %7, align 4, !tbaa !33
  %43 = sub i32 %41, %42
  store i32 %43, ptr %3, align 4
  store i32 1, ptr %8, align 4
  br label %44

44:                                               ; preds = %40, %39, %27
  call void @llvm.lifetime.end.p0(i64 4, ptr %7) #14
  call void @llvm.lifetime.end.p0(i64 4, ptr %6) #14
  %45 = load i32, ptr %3, align 4
  ret i32 %45
}

; Function Attrs: nounwind uwtable
define internal i32 @hwloc_type_cmp(ptr noundef %0, ptr noundef %1) #0 {
  %3 = alloca i32, align 4
  %4 = alloca ptr, align 8
  %5 = alloca ptr, align 8
  %6 = alloca i32, align 4
  %7 = alloca i32, align 4
  %8 = alloca i32, align 4
  %9 = alloca i32, align 4
  store ptr %0, ptr %4, align 8, !tbaa !37
  store ptr %1, ptr %5, align 8, !tbaa !37
  call void @llvm.lifetime.start.p0(i64 4, ptr %6) #14
  %10 = load ptr, ptr %4, align 8, !tbaa !37
  %11 = getelementptr inbounds nuw %struct.hwloc_obj, ptr %10, i32 0, i32 0
  %12 = load i32, ptr %11, align 8, !tbaa !46
  store i32 %12, ptr %6, align 4, !tbaa !33
  call void @llvm.lifetime.start.p0(i64 4, ptr %7) #14
  %13 = load ptr, ptr %5, align 8, !tbaa !37
  %14 = getelementptr inbounds nuw %struct.hwloc_obj, ptr %13, i32 0, i32 0
  %15 = load i32, ptr %14, align 8, !tbaa !46
  store i32 %15, ptr %7, align 4, !tbaa !33
  call void @llvm.lifetime.start.p0(i64 4, ptr %8) #14
  %16 = load i32, ptr %6, align 4, !tbaa !33
  %17 = load i32, ptr %7, align 4, !tbaa !33
  %18 = call i32 @hwloc_compare_types(i32 noundef %16, i32 noundef %17) #16
  store i32 %18, ptr %8, align 4, !tbaa !33
  %19 = load i32, ptr %8, align 4, !tbaa !33
  %20 = icmp eq i32 %19, 2147483647
  br i1 %20, label %21, label %22

21:                                               ; preds = %2
  store i32 4, ptr %3, align 4
  store i32 1, ptr %9, align 4
  br label %61

22:                                               ; preds = %2
  %23 = load i32, ptr %8, align 4, !tbaa !33
  %24 = icmp sgt i32 %23, 0
  br i1 %24, label %25, label %26

25:                                               ; preds = %22
  store i32 1, ptr %3, align 4
  store i32 1, ptr %9, align 4
  br label %61

26:                                               ; preds = %22
  %27 = load i32, ptr %8, align 4, !tbaa !33
  %28 = icmp slt i32 %27, 0
  br i1 %28, label %29, label %30

29:                                               ; preds = %26
  store i32 2, ptr %3, align 4
  store i32 1, ptr %9, align 4
  br label %61

30:                                               ; preds = %26
  %31 = load ptr, ptr %4, align 8, !tbaa !37
  %32 = getelementptr inbounds nuw %struct.hwloc_obj, ptr %31, i32 0, i32 0
  %33 = load i32, ptr %32, align 8, !tbaa !46
  %34 = icmp eq i32 %33, 13
  br i1 %34, label %35, label %60

35:                                               ; preds = %30
  %36 = load ptr, ptr %4, align 8, !tbaa !37
  %37 = getelementptr inbounds nuw %struct.hwloc_obj, ptr %36, i32 0, i32 5
  %38 = load ptr, ptr %37, align 8, !tbaa !50
  %39 = getelementptr inbounds nuw %struct.hwloc_group_attr_s, ptr %38, i32 0, i32 1
  %40 = load i32, ptr %39, align 4, !tbaa !73
  %41 = load ptr, ptr %5, align 8, !tbaa !37
  %42 = getelementptr inbounds nuw %struct.hwloc_obj, ptr %41, i32 0, i32 5
  %43 = load ptr, ptr %42, align 8, !tbaa !50
  %44 = getelementptr inbounds nuw %struct.hwloc_group_attr_s, ptr %43, i32 0, i32 1
  %45 = load i32, ptr %44, align 4, !tbaa !73
  %46 = icmp ne i32 %40, %45
  br i1 %46, label %59, label %47

47:                                               ; preds = %35
  %48 = load ptr, ptr %4, align 8, !tbaa !37
  %49 = getelementptr inbounds nuw %struct.hwloc_obj, ptr %48, i32 0, i32 5
  %50 = load ptr, ptr %49, align 8, !tbaa !50
  %51 = getelementptr inbounds nuw %struct.hwloc_group_attr_s, ptr %50, i32 0, i32 2
  %52 = load i32, ptr %51, align 8, !tbaa !73
  %53 = load ptr, ptr %5, align 8, !tbaa !37
  %54 = getelementptr inbounds nuw %struct.hwloc_obj, ptr %53, i32 0, i32 5
  %55 = load ptr, ptr %54, align 8, !tbaa !50
  %56 = getelementptr inbounds nuw %struct.hwloc_group_attr_s, ptr %55, i32 0, i32 2
  %57 = load i32, ptr %56, align 8, !tbaa !73
  %58 = icmp ne i32 %52, %57
  br i1 %58, label %59, label %60

59:                                               ; preds = %47, %35
  store i32 4, ptr %3, align 4
  store i32 1, ptr %9, align 4
  br label %61

60:                                               ; preds = %47, %30
  store i32 0, ptr %3, align 4
  store i32 1, ptr %9, align 4
  br label %61

61:                                               ; preds = %60, %59, %29, %25, %21
  call void @llvm.lifetime.end.p0(i64 4, ptr %8) #14
  call void @llvm.lifetime.end.p0(i64 4, ptr %7) #14
  call void @llvm.lifetime.end.p0(i64 4, ptr %6) #14
  %62 = load i32, ptr %3, align 4
  ret i32 %62
}

; Function Attrs: nounwind uwtable
define internal i32 @find_same_type(ptr noundef %0, ptr noundef %1) #0 {
  %3 = alloca i32, align 4
  %4 = alloca ptr, align 8
  %5 = alloca ptr, align 8
  %6 = alloca ptr, align 8
  %7 = alloca i32, align 4
  store ptr %0, ptr %4, align 8, !tbaa !37
  store ptr %1, ptr %5, align 8, !tbaa !37
  call void @llvm.lifetime.start.p0(i64 8, ptr %6) #14
  %8 = load ptr, ptr %4, align 8, !tbaa !37
  %9 = getelementptr inbounds nuw %struct.hwloc_obj, ptr %8, i32 0, i32 16
  %10 = load ptr, ptr %9, align 8, !tbaa !130
  store ptr %10, ptr %6, align 8, !tbaa !37
  br label %11

11:                                               ; preds = %27, %2
  %12 = load ptr, ptr %6, align 8, !tbaa !37
  %13 = icmp ne ptr %12, null
  br i1 %13, label %14, label %31

14:                                               ; preds = %11
  %15 = load ptr, ptr %6, align 8, !tbaa !37
  %16 = load ptr, ptr %5, align 8, !tbaa !37
  %17 = call i32 @hwloc_type_cmp(ptr noundef %15, ptr noundef %16)
  %18 = icmp eq i32 %17, 0
  br i1 %18, label %19, label %20

19:                                               ; preds = %14
  store i32 1, ptr %3, align 4
  store i32 1, ptr %7, align 4
  br label %32

20:                                               ; preds = %14
  %21 = load ptr, ptr %6, align 8, !tbaa !37
  %22 = load ptr, ptr %5, align 8, !tbaa !37
  %23 = call i32 @find_same_type(ptr noundef %21, ptr noundef %22)
  %24 = icmp ne i32 %23, 0
  br i1 %24, label %25, label %26

25:                                               ; preds = %20
  store i32 1, ptr %3, align 4
  store i32 1, ptr %7, align 4
  br label %32

26:                                               ; preds = %20
  br label %27

27:                                               ; preds = %26
  %28 = load ptr, ptr %6, align 8, !tbaa !37
  %29 = getelementptr inbounds nuw %struct.hwloc_obj, ptr %28, i32 0, i32 12
  %30 = load ptr, ptr %29, align 8, !tbaa !82
  store ptr %30, ptr %6, align 8, !tbaa !37
  br label %11, !llvm.loop !254

31:                                               ; preds = %11
  store i32 0, ptr %3, align 4
  store i32 1, ptr %7, align 4
  br label %32

32:                                               ; preds = %31, %25, %19
  call void @llvm.lifetime.end.p0(i64 8, ptr %6) #14
  %33 = load i32, ptr %3, align 4
  ret i32 %33
}