; Function Attrs: nofree nosync nounwind memory(read, inaccessiblemem: none) uwtable
define internal fastcc range(i32 0, 2) i32 @find_same_type(ptr noundef readonly captures(none) %0, ptr noundef readonly captures(none) %1) unnamed_addr #28 {
  %3 = getelementptr inbounds nuw i8, ptr %0, i64 120
  %.011 = load ptr, ptr %3, align 8, !tbaa !50
  %.not12 = icmp eq ptr %.011, null
  br i1 %.not12, label %hwloc_type_cmp.exit, label %.lr.ph

.lr.ph:                                           ; preds = %2
  %4 = load i32, ptr %1, align 8, !tbaa !35
  %.fr23 = freeze i32 %4
  %5 = add i32 %.fr23, -1
  %or.cond.i.i = icmp ult i32 %5, 13
  %6 = zext i32 %.fr23 to i64
  %7 = getelementptr inbounds nuw [20 x i32], ptr @obj_type_order, i64 0, i64 %6
  %8 = icmp ugt i32 %.fr23, 13
  %9 = getelementptr inbounds nuw i8, ptr %1, i64 40
  br i1 %or.cond.i.i, label %.lr.ph.split, label %.lr.ph.split.us

.lr.ph.split.us:                                  ; preds = %.lr.ph
  %10 = load i32, ptr %7, align 4, !tbaa !31
  br label %11

11:                                               ; preds = %18, %.lr.ph.split.us
  %.013.us = phi ptr [ %.011, %.lr.ph.split.us ], [ %.0.us, %18 ]
  %12 = load i32, ptr %.013.us, align 8, !tbaa !35
  %13 = zext i32 %12 to i64
  %14 = getelementptr inbounds nuw [20 x i32], ptr @obj_type_order, i64 0, i64 %13
  %15 = load i32, ptr %14, align 4, !tbaa !31
  %16 = add i32 %12, -1
  %or.cond3.i.i.us = icmp ult i32 %16, 13
  %or.cond15.i.i.us = and i1 %8, %or.cond3.i.i.us
  %17 = icmp ne i32 %15, %10
  %or.cond10.us = select i1 %or.cond15.i.i.us, i1 true, i1 %17
  br i1 %or.cond10.us, label %35, label %20

18:                                               ; preds = %35
  %19 = getelementptr inbounds nuw i8, ptr %.013.us, i64 88
  %.0.us = load ptr, ptr %19, align 8, !tbaa !50
  %.not.us = icmp eq ptr %.0.us, null
  br i1 %.not.us, label %hwloc_type_cmp.exit, label %11, !llvm.loop !235

20:                                               ; preds = %11
  %21 = icmp eq i32 %12, 13
  br i1 %21, label %22, label %hwloc_type_cmp.exit

22:                                               ; preds = %20
  %23 = getelementptr inbounds nuw i8, ptr %.013.us, i64 40
  %24 = load ptr, ptr %23, align 8, !tbaa !44
  %25 = getelementptr inbounds nuw i8, ptr %24, i64 4
  %26 = load i32, ptr %25, align 4, !tbaa !53
  %27 = load ptr, ptr %9, align 8, !tbaa !44
  %28 = getelementptr inbounds nuw i8, ptr %27, i64 4
  %29 = load i32, ptr %28, align 4, !tbaa !53
  %.not.i.us = icmp eq i32 %26, %29
  br i1 %.not.i.us, label %30, label %35

30:                                               ; preds = %22
  %31 = getelementptr inbounds nuw i8, ptr %24, i64 8
  %32 = load i32, ptr %31, align 8, !tbaa !53
  %33 = getelementptr inbounds nuw i8, ptr %27, i64 8
  %34 = load i32, ptr %33, align 8, !tbaa !53
  %.not13.i.us = icmp eq i32 %32, %34
  br i1 %.not13.i.us, label %hwloc_type_cmp.exit, label %35

35:                                               ; preds = %30, %22, %11
  %36 = tail call fastcc i32 @find_same_type(ptr noundef nonnull %.013.us, ptr noundef nonnull %1)
  %.not8.us = icmp eq i32 %36, 0
  br i1 %.not8.us, label %18, label %hwloc_type_cmp.exit

37:                                               ; preds = %63
  %38 = getelementptr inbounds nuw i8, ptr %.013, i64 88
  %.0 = load ptr, ptr %38, align 8, !tbaa !50
  %.not = icmp eq ptr %.0, null
  br i1 %.not, label %hwloc_type_cmp.exit, label %.lr.ph.split, !llvm.loop !235

.lr.ph.split:                                     ; preds = %.lr.ph, %37
  %.013 = phi ptr [ %.0, %37 ], [ %.011, %.lr.ph ]
  %39 = load i32, ptr %.013, align 8, !tbaa !35
  %40 = icmp ugt i32 %39, 13
  br i1 %40, label %63, label %41

41:                                               ; preds = %.lr.ph.split
  %42 = load i32, ptr %7, align 4, !tbaa !31
  %43 = zext nneg i32 %39 to i64
  %44 = getelementptr inbounds nuw [20 x i32], ptr @obj_type_order, i64 0, i64 %43
  %45 = load i32, ptr %44, align 4, !tbaa !31
  %46 = add nsw i32 %39, -1
  %or.cond3.i.i = icmp ult i32 %46, 13
  %or.cond15.i.i = and i1 %8, %or.cond3.i.i
  %47 = icmp ne i32 %45, %42
  %or.cond10 = select i1 %or.cond15.i.i, i1 true, i1 %47
  br i1 %or.cond10, label %63, label %48

48:                                               ; preds = %41
  %49 = icmp eq i32 %39, 13
  br i1 %49, label %50, label %hwloc_type_cmp.exit

50:                                               ; preds = %48
  %51 = getelementptr inbounds nuw i8, ptr %.013, i64 40
  %52 = load ptr, ptr %51, align 8, !tbaa !44
  %53 = getelementptr inbounds nuw i8, ptr %52, i64 4
  %54 = load i32, ptr %53, align 4, !tbaa !53
  %55 = load ptr, ptr %9, align 8, !tbaa !44
  %56 = getelementptr inbounds nuw i8, ptr %55, i64 4
  %57 = load i32, ptr %56, align 4, !tbaa !53
  %.not.i = icmp eq i32 %54, %57
  br i1 %.not.i, label %58, label %63

58:                                               ; preds = %50
  %59 = getelementptr inbounds nuw i8, ptr %52, i64 8
  %60 = load i32, ptr %59, align 8, !tbaa !53
  %61 = getelementptr inbounds nuw i8, ptr %55, i64 8
  %62 = load i32, ptr %61, align 8, !tbaa !53
  %.not13.i = icmp eq i32 %60, %62
  br i1 %.not13.i, label %hwloc_type_cmp.exit, label %63

63:                                               ; preds = %58, %50, %.lr.ph.split, %41
  %64 = tail call fastcc i32 @find_same_type(ptr noundef nonnull %.013, ptr noundef nonnull %1)
  %.not8 = icmp eq i32 %64, 0
  br i1 %.not8, label %37, label %hwloc_type_cmp.exit

hwloc_type_cmp.exit:                              ; preds = %35, %18, %20, %30, %63, %37, %48, %58, %2
  %.07 = phi i32 [ 0, %2 ], [ 1, %58 ], [ 1, %48 ], [ 0, %37 ], [ 1, %63 ], [ 1, %30 ], [ 1, %20 ], [ 0, %18 ], [ 1, %35 ]
  ret i32 %.07
}